target datalayout = "e-m:e-p270:32:32-p271:32:32-p272:64:64-i64:64-i128:128-f80:128-n8:16:32:64-S128"
target triple = "x86_64-pc-linux-gnu"

%struct.ident_t = type { i32, i32, i32, i32, ptr }
%"struct.faiss::IndexIVFFastScan" = type { %"struct.faiss::IndexIVF.base", i32, i64, i64, i64, i64, i32, i32, i32, i64, ptr, ptr }
%"struct.faiss::IndexIVF.base" = type <{ %"struct.faiss::Index.base", [4 x i8], %"struct.faiss::IndexIVFInterface", ptr, i8, [7 x i8], i64, i32, i32, %"struct.faiss::DirectMap", i8 }>
%"struct.faiss::Index.base" = type <{ ptr, i32, [4 x i8], i64, i8, i8, [2 x i8], i32, float }>
%"struct.faiss::IndexIVFInterface" = type { ptr, %"struct.faiss::Level1Quantizer", i64, i64 }
%"struct.faiss::Level1Quantizer" = type { ptr, i64, i8, i8, [6 x i8], %"struct.faiss::ClusteringParameters", ptr }
%"struct.faiss::ClusteringParameters" = type <{ i32, i32, i8, i8, i8, i8, i8, [3 x i8], i32, i32, i32, [4 x i8], i64, i8, i8, [6 x i8] }>
%"struct.faiss::DirectMap" = type { i32, %"class.std::vector", %"class.std::unordered_map" }
%"class.std::vector" = type { %"struct.std::_Vector_base" }
%"struct.std::_Vector_base" = type { %"struct.std::_Vector_base<long, std::allocator<long>>::_Vector_impl" }
%"struct.std::_Vector_base<long, std::allocator<long>>::_Vector_impl" = type { %"struct.std::_Vector_base<long, std::allocator<long>>::_Vector_impl_data" }
%"struct.std::_Vector_base<long, std::allocator<long>>::_Vector_impl_data" = type { ptr, ptr, ptr }
%"class.std::unordered_map" = type { %"class.std::_Hashtable" }
%"class.std::_Hashtable" = type { ptr, i64, %"struct.std::__detail::_Hash_node_base", i64, %"struct.std::__detail::_Prime_rehash_policy", ptr }
%"struct.std::__detail::_Hash_node_base" = type { ptr }
%"struct.std::__detail::_Prime_rehash_policy" = type { float, i64 }
%"struct.faiss::AlignedTable.25" = type { %"struct.faiss::AlignedTableTightAlloc.26", i64 }
%"struct.faiss::AlignedTableTightAlloc.26" = type { ptr, i64 }

@1 = private unnamed_addr constant %struct.ident_t { i32 0, i32 514, i32 0, i32 22, ptr @0 }, align 8
@.gomp_critical_user_.reduction.var = common global [8 x i32] zeroinitializer, align 8
@2 = private unnamed_addr constant %struct.ident_t { i32 0, i32 18, i32 0, i32 22, ptr @0 }, align 8

; Function Attrs: mustprogress nounwind uwtable
define linkonce_odr noundef ptr @_ZN5faiss22AlignedTableTightAllocIfLi32EE3getEv(ptr noundef nonnull align 8 dereferenceable(16) %0) #0 comdat align 2 {
  %2 = alloca ptr, align 8
  store ptr %0, ptr %2, align 8, !tbaa !259
  %3 = load ptr, ptr %2, align 8
  %4 = getelementptr inbounds nuw %"struct.faiss::AlignedTableTightAlloc.26", ptr %3, i32 0, i32 0
  %5 = load ptr, ptr %4, align 8, !tbaa !261
  ret ptr %5
}

; Function Attrs: mustprogress uwtable
define linkonce_odr noundef ptr @_ZN5faiss12AlignedTableIfLi32EE3getEv(ptr noundef nonnull align 8 dereferenceable(24) %0) #2 comdat align 2 {
  %2 = alloca ptr, align 8
  store ptr %0, ptr %2, align 8, !tbaa !98
  %3 = load ptr, ptr %2, align 8
  %4 = getelementptr inbounds nuw %"struct.faiss::AlignedTable.25", ptr %3, i32 0, i32 0
  %5 = call noundef ptr @_ZN5faiss22AlignedTableTightAllocIfLi32EE3getEv(ptr noundef nonnull align 8 dereferenceable(16) %4)
  ret ptr %5
}

; Function Attrs: alwaysinline norecurse nounwind uwtable
define internal void @_ZN5faiss33IndexIVFAdditiveQuantizerFastScan19estimate_norm_scaleElPKf.omp_outlined(ptr noalias noundef %0, ptr noalias noundef %1, ptr noundef nonnull align 8 dereferenceable(8) %2, ptr noundef nonnull align 8 dereferenceable(24) %3, ptr noundef %4, ptr noundef nonnull align 4 dereferenceable(4) %5) #17 personality ptr @__gxx_personality_v0 {
  %7 = alloca ptr, align 8
  %8 = alloca ptr, align 8
  %9 = alloca ptr, align 8
  %10 = alloca ptr, align 8
  %11 = alloca ptr, align 8
  %12 = alloca ptr, align 8
  %13 = alloca i64, align 8
  %14 = alloca i64, align 8
  %15 = alloca i64, align 8
  %16 = alloca i64, align 8
  %17 = alloca i64, align 8
  %18 = alloca i64, align 8
  %19 = alloca i64, align 8
  %20 = alloca i32, align 4
  %21 = alloca float, align 4
  %22 = alloca i64, align 8
  %23 = alloca ptr, align 8
  %24 = alloca [1 x ptr], align 8
  store ptr %0, ptr %7, align 8, !tbaa !228
  store ptr %1, ptr %8, align 8, !tbaa !228
  store ptr %2, ptr %9, align 8, !tbaa !13
  store ptr %3, ptr %10, align 8, !tbaa !98
  store ptr %4, ptr %11, align 8, !tbaa !4
  store ptr %5, ptr %12, align 8, !tbaa !11
  %25 = load ptr, ptr %9, align 8, !tbaa !13
  %26 = load ptr, ptr %10, align 8, !tbaa !98
  %27 = load ptr, ptr %11, align 8, !tbaa !4
  %28 = load ptr, ptr %12, align 8, !tbaa !11
  call void @llvm.lifetime.start.p0(i64 8, ptr %13) #18
  call void @llvm.lifetime.start.p0(i64 8, ptr %14) #18
  %29 = load i64, ptr %25, align 8, !tbaa !9
  store i64 %29, ptr %14, align 8, !tbaa !9
  call void @llvm.lifetime.start.p0(i64 8, ptr %15) #18
  %30 = load i64, ptr %14, align 8, !tbaa !9
  %31 = sub nsw i64 %30, 0
  %32 = sdiv i64 %31, 1
  %33 = sub nsw i64 %32, 1
  store i64 %33, ptr %15, align 8, !tbaa !9
  call void @llvm.lifetime.start.p0(i64 8, ptr %16) #18
  store i64 0, ptr %16, align 8, !tbaa !9
  call void @llvm.lifetime.end.p0(i64 8, ptr %16) #18
  %34 = load i64, ptr %14, align 8, !tbaa !9
  %35 = icmp slt i64 0, %34
  br i1 %35, label %36, label %98

36:                                               ; preds = %6
  call void @llvm.lifetime.start.p0(i64 8, ptr %17) #18
  store i64 0, ptr %17, align 8, !tbaa !9
  call void @llvm.lifetime.start.p0(i64 8, ptr %18) #18
  %37 = load i64, ptr %15, align 8, !tbaa !9
  store i64 %37, ptr %18, align 8, !tbaa !9
  call void @llvm.lifetime.start.p0(i64 8, ptr %19) #18
  store i64 1, ptr %19, align 8, !tbaa !9
  call void @llvm.lifetime.start.p0(i64 4, ptr %20) #18
  store i32 0, ptr %20, align 4, !tbaa !17
  call void @llvm.lifetime.start.p0(i64 4, ptr %21) #18
  store float 0.000000e+00, ptr %21, align 4, !tbaa !94
  call void @llvm.lifetime.start.p0(i64 8, ptr %22) #18
  %38 = load ptr, ptr %7, align 8
  %39 = load i32, ptr %38, align 4, !tbaa !17
  call void @__kmpc_for_static_init_8(ptr @1, i32 %39, i32 34, ptr %20, ptr %17, ptr %18, ptr %19, i64 1, i64 1)
  %40 = load i64, ptr %18, align 8, !tbaa !9
  %41 = load i64, ptr %15, align 8, !tbaa !9
  %42 = icmp sgt i64 %40, %41
  br i1 %42, label %43, label %45

43:                                               ; preds = %36
  %44 = load i64, ptr %15, align 8, !tbaa !9
  br label %47

45:                                               ; preds = %36
  %46 = load i64, ptr %18, align 8, !tbaa !9
  br label %47

47:                                               ; preds = %45, %43
  %48 = phi i64 [ %44, %43 ], [ %46, %45 ]
  store i64 %48, ptr %18, align 8, !tbaa !9
  %49 = load i64, ptr %17, align 8, !tbaa !9
  store i64 %49, ptr %13, align 8, !tbaa !9
  br label %50

50:                                               ; preds = %79, %47
  %51 = load i64, ptr %13, align 8, !tbaa !9
  %52 = load i64, ptr %18, align 8, !tbaa !9
  %53 = icmp sle i64 %51, %52
  br i1 %53, label %55, label %54

54:                                               ; preds = %50
  br label %82

55:                                               ; preds = %50
  %56 = load i64, ptr %13, align 8, !tbaa !9
  %57 = mul nsw i64 %56, 1
  %58 = add nsw i64 0, %57
  store i64 %58, ptr %22, align 8, !tbaa !9
  call void @llvm.lifetime.start.p0(i64 8, ptr %23) #18
  %59 = invoke noundef ptr @_ZN5faiss12AlignedTableIfLi32EE3getEv(ptr noundef nonnull align 8 dereferenceable(24) %26)
          to label %60 unwind label %99

60:                                               ; preds = %55
  %61 = load i64, ptr %22, align 8, !tbaa !9
  %62 = getelementptr inbounds nuw %"struct.faiss::IndexIVFFastScan", ptr %27, i32 0, i32 2
  %63 = load i64, ptr %62, align 8, !tbaa !100
  %64 = mul i64 %61, %63
  %65 = getelementptr inbounds nuw %"struct.faiss::IndexIVFFastScan", ptr %27, i32 0, i32 4
  %66 = load i64, ptr %65, align 8, !tbaa !89
  %67 = mul i64 %64, %66
  %68 = getelementptr inbounds nuw float, ptr %59, i64 %67
  store ptr %68, ptr %23, align 8, !tbaa !11
  %69 = getelementptr inbounds nuw %"struct.faiss::IndexIVFFastScan", ptr %27, i32 0, i32 2
  %70 = load i64, ptr %69, align 8, !tbaa !100
  %71 = getelementptr inbounds nuw %"struct.faiss::IndexIVFFastScan", ptr %27, i32 0, i32 4
  %72 = load i64, ptr %71, align 8, !tbaa !89
  %73 = load ptr, ptr %23, align 8, !tbaa !11
  %74 = invoke noundef float @_ZN5faiss12quantize_lut22aq_estimate_norm_scaleEmmmPKf(i64 noundef %70, i64 noundef %72, i64 noundef 2, ptr noundef %73)
          to label %75 unwind label %99

75:                                               ; preds = %60
  %76 = load float, ptr %21, align 4, !tbaa !94
  %77 = fadd float %76, %74
  store float %77, ptr %21, align 4, !tbaa !94
  call void @llvm.lifetime.end.p0(i64 8, ptr %23) #18
  br label %78

78:                                               ; preds = %75
  br label %79

79:                                               ; preds = %78
  %80 = load i64, ptr %13, align 8, !tbaa !9
  %81 = add nsw i64 %80, 1
  store i64 %81, ptr %13, align 8, !tbaa !9
  br label %50

82:                                               ; preds = %54
  br label %83

83:                                               ; preds = %82
  %84 = load ptr, ptr %7, align 8
  %85 = load i32, ptr %84, align 4, !tbaa !17
  call void @__kmpc_for_static_fini(ptr @1, i32 %85)
  %86 = getelementptr inbounds [1 x ptr], ptr %24, i64 0, i64 0
  store ptr %21, ptr %86, align 8
  %87 = load ptr, ptr %7, align 8
  %88 = load i32, ptr %87, align 4, !tbaa !17
  %89 = call i32 @__kmpc_reduce_nowait(ptr @2, i32 %88, i32 1, i64 8, ptr %24, ptr @_ZN5faiss33IndexIVFAdditiveQuantizerFastScan19estimate_norm_scaleElPKf.omp_outlined.omp.reduction.reduction_func, ptr @.gomp_critical_user_.reduction.var)
  switch i32 %89, label %97 [
    i32 1, label %90
    i32 2, label %94
  ]

90:                                               ; preds = %83
  %91 = load float, ptr %28, align 4, !tbaa !94
  %92 = load float, ptr %21, align 4, !tbaa !94
  %93 = fadd float %91, %92
  store float %93, ptr %28, align 4, !tbaa !94
  call void @__kmpc_end_reduce_nowait(ptr @2, i32 %88, ptr @.gomp_critical_user_.reduction.var)
  br label %97

94:                                               ; preds = %83
  %95 = load float, ptr %21, align 4, !tbaa !94
  %96 = atomicrmw fadd ptr %28, float %95 monotonic, align 4
  br label %97

97:                                               ; preds = %94, %90, %83
  call void @llvm.lifetime.end.p0(i64 8, ptr %22) #18
  call void @llvm.lifetime.end.p0(i64 4, ptr %21) #18
  call void @llvm.lifetime.end.p0(i64 4, ptr %20) #18
  call void @llvm.lifetime.end.p0(i64 8, ptr %19) #18
  call void @llvm.lifetime.end.p0(i64 8, ptr %18) #18
  call void @llvm.lifetime.end.p0(i64 8, ptr %17) #18
  br label %98

98:                                               ; preds = %97, %6
  call void @llvm.lifetime.end.p0(i64 8, ptr %15) #18
  call void @llvm.lifetime.end.p0(i64 8, ptr %14) #18
  call void @llvm.lifetime.end.p0(i64 8, ptr %13) #18
  ret void

99:                                               ; preds = %60, %55
  %100 = landingpad { ptr, i32 }
          catch ptr null
  %101 = extractvalue { ptr, i32 } %100, 0
  call void @__clang_call_terminate(ptr %101) #26
  unreachable
}