; Function Attrs: alwaysinline norecurse nounwind uwtable
define internal void @_ZN5faiss33IndexIVFAdditiveQuantizerFastScan19estimate_norm_scaleElPKf.omp_outlined(ptr noalias noundef readonly captures(none) %0, ptr noalias readnone captures(none) %1, ptr noundef nonnull readonly align 8 captures(none) dereferenceable(8) %2, ptr noundef nonnull readonly align 8 captures(none) dereferenceable(24) %3, ptr noundef readonly captures(none) %4, ptr noundef nonnull align 4 captures(none) dereferenceable(4) %5) #20 personality ptr @__gxx_personality_v0 {
  %7 = alloca i64, align 8
  %8 = alloca i64, align 8
  %9 = alloca i64, align 8
  %10 = alloca i32, align 4
  %11 = alloca float, align 4
  %12 = alloca [1 x ptr], align 8
  %13 = load i64, ptr %2, align 8, !tbaa !56
  %14 = icmp sgt i64 %13, 0
  br i1 %14, label %15, label %45

15:                                               ; preds = %6
  %16 = add nsw i64 %13, -1
  call void @llvm.lifetime.start.p0(i64 8, ptr nonnull %7) #21
  store i64 0, ptr %7, align 8, !tbaa !56
  call void @llvm.lifetime.start.p0(i64 8, ptr nonnull %8) #21
  store i64 %16, ptr %8, align 8, !tbaa !56
  call void @llvm.lifetime.start.p0(i64 8, ptr nonnull %9) #21
  store i64 1, ptr %9, align 8, !tbaa !56
  call void @llvm.lifetime.start.p0(i64 4, ptr nonnull %10) #21
  store i32 0, ptr %10, align 4, !tbaa !70
  call void @llvm.lifetime.start.p0(i64 4, ptr nonnull %11) #21
  store float 0.000000e+00, ptr %11, align 4, !tbaa !68
  %17 = load i32, ptr %0, align 4, !tbaa !70
  call void @__kmpc_for_static_init_8(ptr nonnull @1, i32 %17, i32 34, ptr nonnull %10, ptr nonnull %7, ptr nonnull %8, ptr nonnull %9, i64 1, i64 1)
  %18 = load i64, ptr %8, align 8, !tbaa !56
  %19 = call i64 @llvm.smin.i64(i64 %18, i64 %16)
  store i64 %19, ptr %8, align 8, !tbaa !56
  %20 = load i64, ptr %7, align 8, !tbaa !56
  %.not16 = icmp sgt i64 %20, %19
  br i1 %.not16, label %._crit_edge, label %.lr.ph

.lr.ph:                                           ; preds = %15
  %21 = getelementptr inbounds nuw i8, ptr %4, i64 272
  %22 = getelementptr inbounds nuw i8, ptr %4, i64 288
  br label %23

23:                                               ; preds = %.lr.ph, %32
  %24 = phi float [ 0.000000e+00, %.lr.ph ], [ %33, %32 ]
  %.017 = phi i64 [ %20, %.lr.ph ], [ %34, %32 ]
  %25 = load ptr, ptr %3, align 8, !tbaa !102
  %26 = load i64, ptr %21, align 8, !tbaa !101
  %27 = mul i64 %26, %.017
  %28 = load i64, ptr %22, align 8, !tbaa !94
  %29 = mul i64 %27, %28
  %30 = getelementptr inbounds nuw float, ptr %25, i64 %29
  %31 = invoke noundef float @_ZN5faiss12quantize_lut22aq_estimate_norm_scaleEmmmPKf(i64 noundef %26, i64 noundef %28, i64 noundef 2, ptr noundef %30)
          to label %32 unwind label %46

32:                                               ; preds = %23
  %33 = fadd float %31, %24
  store float %33, ptr %11, align 4, !tbaa !68
  %34 = add nsw i64 %.017, 1
  %35 = load i64, ptr %8, align 8, !tbaa !56
  %.not.not = icmp slt i64 %.017, %35
  br i1 %.not.not, label %23, label %._crit_edge

._crit_edge:                                      ; preds = %32, %15
  call void @__kmpc_for_static_fini(ptr nonnull @1, i32 %17)
  store ptr %11, ptr %12, align 8
  %36 = call i32 @__kmpc_reduce_nowait(ptr nonnull @2, i32 %17, i32 1, i64 8, ptr nonnull %12, ptr nonnull @_ZN5faiss33IndexIVFAdditiveQuantizerFastScan19estimate_norm_scaleElPKf.omp_outlined.omp.reduction.reduction_func, ptr nonnull @.gomp_critical_user_.reduction.var)
  switch i32 %36, label %44 [
    i32 1, label %37
    i32 2, label %41
  ]

37:                                               ; preds = %._crit_edge
  %38 = load float, ptr %5, align 4, !tbaa !68
  %39 = load float, ptr %11, align 4, !tbaa !68
  %40 = fadd float %38, %39
  store float %40, ptr %5, align 4, !tbaa !68
  call void @__kmpc_end_reduce_nowait(ptr nonnull @2, i32 %17, ptr nonnull @.gomp_critical_user_.reduction.var)
  br label %44

41:                                               ; preds = %._crit_edge
  %42 = load float, ptr %11, align 4, !tbaa !68
  %43 = atomicrmw fadd ptr %5, float %42 monotonic, align 4
  br label %44

44:                                               ; preds = %41, %37, %._crit_edge
  call void @llvm.lifetime.end.p0(i64 4, ptr nonnull %11) #21
  call void @llvm.lifetime.end.p0(i64 4, ptr nonnull %10) #21
  call void @llvm.lifetime.end.p0(i64 8, ptr nonnull %9) #21
  call void @llvm.lifetime.end.p0(i64 8, ptr nonnull %8) #21
  call void @llvm.lifetime.end.p0(i64 8, ptr nonnull %7) #21
  br label %45

45:                                               ; preds = %44, %6
  ret void

46:                                               ; preds = %23
  %47 = landingpad { ptr, i32 }
          catch ptr null
  %48 = extractvalue { ptr, i32 } %47, 0
  call void @__clang_call_terminate(ptr %48) #32
  unreachable
}